target datalayout = "e-m:e-p270:32:32-p271:32:32-p272:64:64-i64:64-i128:128-f80:128-n8:16:32:64-S128"
target triple = "x86_64-pc-linux-gnu"

%class.LIR_Opr = type { i64 }
%class.GrowableArrayBase = type { i32, i32 }
%class.Instruction = type { ptr, i32, i32, i32, ptr, ptr, ptr, %class.LIR_Opr, i32, ptr, ptr, ptr, ptr }
%class.StateSplit = type { %class.Instruction, ptr }
%class.GrowableArrayView.13 = type { %class.GrowableArrayBase, ptr }
%class.If = type <{ %class.BlockEnd, ptr, i32, [4 x i8], ptr, ptr, i32, i8, [3 x i8] }>
%class.BlockEnd = type { %class.StateSplit, ptr }

; Function Attrs: mustprogress nounwind uwtable
define linkonce_odr hidden noundef nonnull align 8 dereferenceable(8) ptr @_ZN17GrowableArrayViewIP10BlockBeginE2atEi(ptr noundef nonnull align 8 dereferenceable(16) %0, i32 noundef %1) #1 comdat align 2 {
  %3 = alloca ptr, align 8
  %4 = alloca i32, align 4
  store ptr %0, ptr %3, align 8
  store i32 %1, ptr %4, align 4
  %5 = load ptr, ptr %3, align 8
  %6 = getelementptr inbounds %class.GrowableArrayView.13, ptr %5, i32 0, i32 1
  %7 = load ptr, ptr %6, align 8
  %8 = load i32, ptr %4, align 4
  %9 = sext i32 %8 to i64
  %10 = getelementptr inbounds ptr, ptr %7, i64 %9
  ret ptr %10
}

; Function Attrs: mustprogress nounwind uwtable
define linkonce_odr hidden noundef ptr @_ZNK8BlockEnd6sux_atEi(ptr noundef nonnull align 8 dereferenceable(112) %0, i32 noundef %1) #1 comdat align 2 {
  %3 = alloca ptr, align 8
  %4 = alloca i32, align 4
  store ptr %0, ptr %3, align 8
  store i32 %1, ptr %4, align 4
  %5 = load ptr, ptr %3, align 8
  %6 = getelementptr inbounds %class.BlockEnd, ptr %5, i32 0, i32 1
  %7 = load ptr, ptr %6, align 8
  %8 = load i32, ptr %4, align 4
  %9 = call noundef nonnull align 8 dereferenceable(8) ptr @_ZN17GrowableArrayViewIP10BlockBeginE2atEi(ptr noundef nonnull align 8 dereferenceable(16) %7, i32 noundef %8)
  %10 = load ptr, ptr %9, align 8
  ret ptr %10
}

; Function Attrs: mustprogress nounwind uwtable
define linkonce_odr hidden noundef ptr @_ZNK2If7sux_forEb(ptr noundef nonnull align 8 dereferenceable(149) %0, i1 noundef zeroext %1) #1 comdat align 2 {
  %3 = alloca ptr, align 8
  %4 = alloca i8, align 1
  store ptr %0, ptr %3, align 8
  %5 = zext i1 %1 to i8
  store i8 %5, ptr %4, align 1
  %6 = load ptr, ptr %3, align 8
  %7 = load i8, ptr %4, align 1
  %8 = trunc i8 %7 to i1
  %9 = select i1 %8, i32 0, i32 1
  %10 = call noundef ptr @_ZNK8BlockEnd6sux_atEi(ptr noundef nonnull align 8 dereferenceable(112) %6, i32 noundef %9)
  ret ptr %10
}

; Function Attrs: mustprogress nounwind uwtable
define linkonce_odr hidden noundef ptr @_ZNK11Instruction4typeEv(ptr noundef nonnull align 8 dereferenceable(96) %0) #1 comdat align 2 {
  %2 = alloca ptr, align 8
  store ptr %0, ptr %2, align 8
  %3 = load ptr, ptr %2, align 8
  %4 = getelementptr inbounds %class.Instruction, ptr %3, i32 0, i32 4
  %5 = load ptr, ptr %4, align 8
  ret ptr %5
}

; Function Attrs: mustprogress nounwind uwtable
define linkonce_odr hidden noundef ptr @_ZNK2If1yEv(ptr noundef nonnull align 8 dereferenceable(149) %0) #1 comdat align 2 {
  %2 = alloca ptr, align 8
  store ptr %0, ptr %2, align 8
  %3 = load ptr, ptr %2, align 8
  %4 = getelementptr inbounds %class.If, ptr %3, i32 0, i32 4
  %5 = load ptr, ptr %4, align 8
  ret ptr %5
}

; Function Attrs: mustprogress nounwind uwtable
define linkonce_odr hidden noundef ptr @_ZNK2If1xEv(ptr noundef nonnull align 8 dereferenceable(149) %0) #1 comdat align 2 {
  %2 = alloca ptr, align 8
  store ptr %0, ptr %2, align 8
  %3 = load ptr, ptr %2, align 8
  %4 = getelementptr inbounds %class.If, ptr %3, i32 0, i32 1
  %5 = load ptr, ptr %4, align 8
  ret ptr %5
}

; Function Attrs: mustprogress nounwind uwtable
define linkonce_odr hidden noundef i32 @_ZNK2If4condEv(ptr noundef nonnull align 8 dereferenceable(149) %0) #1 comdat align 2 {
  %2 = alloca ptr, align 8
  store ptr %0, ptr %2, align 8
  %3 = load ptr, ptr %2, align 8
  %4 = getelementptr inbounds %class.If, ptr %3, i32 0, i32 2
  %5 = load i32, ptr %4, align 8
  ret i32 %5
}

; Function Attrs: mustprogress nounwind uwtable
define linkonce_odr hidden noundef ptr @_ZNK2If4fsuxEv(ptr noundef nonnull align 8 dereferenceable(149) %0) #1 comdat align 2 {
  %2 = alloca ptr, align 8
  store ptr %0, ptr %2, align 8
  %3 = load ptr, ptr %2, align 8
  %4 = call noundef ptr @_ZNK2If7sux_forEb(ptr noundef nonnull align 8 dereferenceable(149) %3, i1 noundef zeroext false)
  ret ptr %4
}

; Function Attrs: mustprogress nounwind uwtable
define linkonce_odr hidden noundef ptr @_ZNK2If4tsuxEv(ptr noundef nonnull align 8 dereferenceable(149) %0) #1 comdat align 2 {
  %2 = alloca ptr, align 8
  store ptr %0, ptr %2, align 8
  %3 = load ptr, ptr %2, align 8
  %4 = call noundef ptr @_ZNK2If7sux_forEb(ptr noundef nonnull align 8 dereferenceable(149) %3, i1 noundef zeroext true)
  ret ptr %4
}

; Function Attrs: mustprogress nounwind uwtable
define hidden void @_ZN20RangeCheckEliminator10process_ifER13GrowableArrayIiEP10BlockBeginP2If(ptr noundef nonnull align 8 dereferenceable(88) %0, ptr noundef nonnull align 8 dereferenceable(24) %1, ptr noundef %2, ptr noundef %3) #1 align 2 {
  %5 = alloca ptr, align 8
  %6 = alloca ptr, align 8
  %7 = alloca ptr, align 8
  %8 = alloca ptr, align 8
  %9 = alloca i32, align 4
  %10 = alloca ptr, align 8
  %11 = alloca ptr, align 8
  store ptr %0, ptr %5, align 8
  store ptr %1, ptr %6, align 8
  store ptr %2, ptr %7, align 8
  store ptr %3, ptr %8, align 8
  %12 = load ptr, ptr %5, align 8
  %13 = load ptr, ptr %8, align 8
  %14 = call noundef ptr @_ZNK2If4tsuxEv(ptr noundef nonnull align 8 dereferenceable(149) %13)
  %15 = load ptr, ptr %7, align 8
  %16 = icmp eq ptr %14, %15
  br i1 %16, label %22, label %17

17:                                               ; preds = %4
  %18 = load ptr, ptr %8, align 8
  %19 = call noundef ptr @_ZNK2If4fsuxEv(ptr noundef nonnull align 8 dereferenceable(149) %18)
  %20 = load ptr, ptr %7, align 8
  %21 = icmp eq ptr %19, %20
  br i1 %21, label %22, label %69

22:                                               ; preds = %17, %4
  %23 = load ptr, ptr %8, align 8
  %24 = call noundef ptr @_ZNK2If4tsuxEv(ptr noundef nonnull align 8 dereferenceable(149) %23)
  %25 = load ptr, ptr %8, align 8
  %26 = call noundef ptr @_ZNK2If4fsuxEv(ptr noundef nonnull align 8 dereferenceable(149) %25)
  %27 = icmp ne ptr %24, %26
  br i1 %27, label %28, label %69

28:                                               ; preds = %22
  %29 = load ptr, ptr %8, align 8
  %30 = call noundef i32 @_ZNK2If4condEv(ptr noundef nonnull align 8 dereferenceable(149) %29)
  store i32 %30, ptr %9, align 4
  %31 = load ptr, ptr %8, align 8
  %32 = call noundef ptr @_ZNK2If4fsuxEv(ptr noundef nonnull align 8 dereferenceable(149) %31)
  %33 = load ptr, ptr %7, align 8
  %34 = icmp eq ptr %32, %33
  br i1 %34, label %35, label %38

35:                                               ; preds = %28
  %36 = load i32, ptr %9, align 4
  %37 = call noundef i32 @_ZN11Instruction6negateENS_9ConditionE(i32 noundef %36)
  store i32 %37, ptr %9, align 4
  br label %38

38:                                               ; preds = %35, %28
  %39 = load ptr, ptr %8, align 8
  %40 = call noundef ptr @_ZNK2If1xEv(ptr noundef nonnull align 8 dereferenceable(149) %39)
  store ptr %40, ptr %10, align 8
  %41 = load ptr, ptr %8, align 8
  %42 = call noundef ptr @_ZNK2If1yEv(ptr noundef nonnull align 8 dereferenceable(149) %41)
  store ptr %42, ptr %11, align 8
  %43 = load ptr, ptr %10, align 8
  %44 = call noundef ptr @_ZNK11Instruction4typeEv(ptr noundef nonnull align 8 dereferenceable(96) %43)
  %45 = load ptr, ptr %44, align 8
  %46 = getelementptr inbounds ptr, ptr %45, i64 5
  %47 = load ptr, ptr %46, align 8
  %48 = call noundef ptr %47(ptr noundef nonnull align 8 dereferenceable(16) %44)
  %49 = icmp ne ptr %48, null
  br i1 %49, label %50, label %68

50:                                               ; preds = %38
  %51 = load ptr, ptr %11, align 8
  %52 = call noundef ptr @_ZNK11Instruction4typeEv(ptr noundef nonnull align 8 dereferenceable(96) %51)
  %53 = load ptr, ptr %52, align 8
  %54 = getelementptr inbounds ptr, ptr %53, i64 5
  %55 = load ptr, ptr %54, align 8
  %56 = call noundef ptr %55(ptr noundef nonnull align 8 dereferenceable(16) %52)
  %57 = icmp ne ptr %56, null
  br i1 %57, label %58, label %68

58:                                               ; preds = %50
  %59 = load ptr, ptr %6, align 8
  %60 = load ptr, ptr %11, align 8
  %61 = load ptr, ptr %10, align 8
  %62 = load i32, ptr %9, align 4
  call void @_ZN20RangeCheckEliminator16add_if_conditionER13GrowableArrayIiEP11InstructionS4_NS3_9ConditionE(ptr noundef nonnull align 8 dereferenceable(88) %12, ptr noundef nonnull align 8 dereferenceable(24) %59, ptr noundef %60, ptr noundef %61, i32 noundef %62)
  %63 = load ptr, ptr %6, align 8
  %64 = load ptr, ptr %10, align 8
  %65 = load ptr, ptr %11, align 8
  %66 = load i32, ptr %9, align 4
  %67 = call noundef i32 @_ZN11Instruction6mirrorENS_9ConditionE(i32 noundef %66)
  call void @_ZN20RangeCheckEliminator16add_if_conditionER13GrowableArrayIiEP11InstructionS4_NS3_9ConditionE(ptr noundef nonnull align 8 dereferenceable(88) %12, ptr noundef nonnull align 8 dereferenceable(24) %63, ptr noundef %64, ptr noundef %65, i32 noundef %67)
  br label %68

68:                                               ; preds = %58, %50, %38
  br label %69

69:                                               ; preds = %68, %22, %17
  ret void
}