; Function Attrs: mustprogress nounwind uwtable
define hidden void @_ZN20RangeCheckEliminator10process_ifER13GrowableArrayIiEP10BlockBeginP2If(ptr noundef nonnull align 8 dereferenceable(88) %0, ptr noundef nonnull align 8 dereferenceable(24) %1, ptr noundef readnone %2, ptr nocapture noundef readonly %3) local_unnamed_addr #0 align 2 {
  %5 = getelementptr inbounds i8, ptr %3, i64 104
  %6 = load ptr, ptr %5, align 8
  %7 = getelementptr inbounds i8, ptr %6, i64 8
  %8 = load ptr, ptr %7, align 8
  %9 = load ptr, ptr %8, align 8
  %10 = icmp eq ptr %9, %2
  %.phi.trans.insert = getelementptr inbounds i8, ptr %8, i64 8
  %.pre = load ptr, ptr %.phi.trans.insert, align 8
  br i1 %10, label %._crit_edge, label %11

11:                                               ; preds = %4
  %12 = icmp eq ptr %.pre, %2
  br i1 %12, label %._crit_edge, label %40

._crit_edge:                                      ; preds = %4, %11
  %13 = phi ptr [ %2, %11 ], [ %.pre, %4 ]
  %.not = icmp eq ptr %9, %13
  br i1 %.not, label %40, label %14

14:                                               ; preds = %._crit_edge
  %15 = getelementptr inbounds i8, ptr %3, i64 120
  %16 = load i32, ptr %15, align 8
  %17 = icmp eq ptr %13, %2
  br i1 %17, label %18, label %20

18:                                               ; preds = %14
  %19 = tail call noundef i32 @_ZN11Instruction6negateENS_9ConditionE(i32 noundef %16) #13
  br label %20

20:                                               ; preds = %18, %14
  %.0 = phi i32 [ %19, %18 ], [ %16, %14 ]
  %21 = getelementptr inbounds i8, ptr %3, i64 112
  %22 = load ptr, ptr %21, align 8
  %23 = getelementptr inbounds i8, ptr %3, i64 128
  %24 = load ptr, ptr %23, align 8
  %25 = getelementptr inbounds i8, ptr %22, i64 24
  %26 = load ptr, ptr %25, align 8
  %27 = load ptr, ptr %26, align 8
  %28 = getelementptr inbounds i8, ptr %27, i64 40
  %29 = load ptr, ptr %28, align 8
  %30 = tail call noundef ptr %29(ptr noundef nonnull align 8 dereferenceable(16) %26) #13
  %.not23 = icmp eq ptr %30, null
  br i1 %.not23, label %40, label %31

31:                                               ; preds = %20
  %32 = getelementptr inbounds i8, ptr %24, i64 24
  %33 = load ptr, ptr %32, align 8
  %34 = load ptr, ptr %33, align 8
  %35 = getelementptr inbounds i8, ptr %34, i64 40
  %36 = load ptr, ptr %35, align 8
  %37 = tail call noundef ptr %36(ptr noundef nonnull align 8 dereferenceable(16) %33) #13
  %.not24 = icmp eq ptr %37, null
  br i1 %.not24, label %40, label %38

38:                                               ; preds = %31
  tail call void @_ZN20RangeCheckEliminator16add_if_conditionER13GrowableArrayIiEP11InstructionS4_NS3_9ConditionE(ptr noundef nonnull align 8 dereferenceable(88) %0, ptr noundef nonnull align 8 dereferenceable(24) %1, ptr noundef nonnull %24, ptr noundef nonnull %22, i32 noundef %.0)
  %39 = tail call noundef i32 @_ZN11Instruction6mirrorENS_9ConditionE(i32 noundef %.0) #13
  tail call void @_ZN20RangeCheckEliminator16add_if_conditionER13GrowableArrayIiEP11InstructionS4_NS3_9ConditionE(ptr noundef nonnull align 8 dereferenceable(88) %0, ptr noundef nonnull align 8 dereferenceable(24) %1, ptr noundef nonnull %22, ptr noundef nonnull %24, i32 noundef %39)
  br label %40

40:                                               ; preds = %20, %31, %38, %._crit_edge, %11
  ret void
}